Certificate:
    Data:
        Version: 1 (0x0)
        Serial Number:
            61:9a:79:f5:d1:dc:4f:48:eb:41:6f:98:9f:cc:99:1b:89:24:0c:b8
        Signature Algorithm: NULL
        Issuer: CN = certificate-authority
        Validity
            Not Before: Jan  5 22:36:24 2021 GMT
            Not After : Jan  5 22:36:24 2022 GMT
        Subject: CN = certificate-authority
        Subject Public Key Info:
            Public Key Algorithm: rsaEncryption
                RSA Public-Key: (2048 bit)
                Modulus:
                    00:da:d2:9a:92:c3:1a:42:82:a5:cf:3f:6f:f1:6c:
                    94:5d:36:d1:95:a8:1f:f3:c1:d7:96:aa:b8:8c:38:
                    bd:16:6e:dd:4d:11:a0:82:35:bd:7a:89:01:e9:93:
                    24:08:dc:77:61:94:45:41:96:ba:2e:54:f6:59:a2:
                    cd:e3:59:f3:77:30:49:24:22:98:0f:44:ca:a1:aa:
                    77:b4:ce:ac:ff:ba:f7:cd:7d:95:fe:07:d8:fd:62:
                    86:57:6c:a0:22:67:09:50:79:bb:6d:77:e5:c1:01:
                    bb:e9:25:44:64:2d:ec:3b:d7:87:d1:2c:44:eb:68:
                    96:be:80:6c:b8:7e:9f:fa:89:f1:b9:77:c0:7a:30:
                    1a:7e:a5:21:be:b1:dc:96:98:78:e1:e1:14:1a:1b:
                    b4:e4:8d:cc:bd:ed:14:5a:e2:ec:4d:5a:57:1e:2b:
                    22:39:cf:34:72:05:53:81:06:0f:81:66:7d:8f:57:
                    ab:7c:56:6f:03:1f:93:80:3f:d5:c3:fd:1c:8d:f2:
                    f0:bd:67:3d:06:60:d2:07:67:5a:28:82:78:ff:c5:
                    f0:70:78:ba:27:35:48:33:b3:50:39:e7:1f:9a:7c:
                    9c:59:37:fe:0f:d3:35:71:bb:e9:17:90:99:d1:4f:
                    a1:e5:eb:6a:c5:ed:5d:62:89:49:40:25:3b:57:bf:
                    45:8b
                Exponent: 65537 (0x10001)
    Signature Algorithm: NULL
-----BEGIN CERTIFICATE-----
MIIDITCCAgmgAwIBAgIUYZp59dHcT0jrQW+Yn8yZG4kkDLgwDQYJKoZIhvcNAQEL
BQAwIDEeMBwGA1UEAwwVY2VydGlmaWNhdGUtYXV0aG9yaXR5MB4XDTIxMDEwNTIy
MzYyNFoXDTIyMDEwNTIyMzYyNFowIDEeMBwGA1UEAwwVY2VydGlmaWNhdGUtYXV0
aG9yaXR5MIIBIjANBgkqhkiG9w0BAQEFAAOCAQ8AMIIBCgKCAQEA2tKaksMaQoKl
zz9v8WyUXTbRlagf88HXlqq4jDi9Fm7dTRGggjW9eokB6ZMkCNx3YZRFQZa6LlT2
WaLN41nzdzBJJCKYD0TKoap3tM6s/7r3zX2V/gfY/WKGV2ygImcJUHm7bXflwQG7
6SVEZC3sO9eH0SxE62iWvoBsuH6f+onxuXfAejAafqUhvrHclph44eEUGhu05I3M
ve0UWuLsTVpXHisiOc80cgVTgQYPgWZ9j1erfFZvAx+TgD/Vw/0cjfLwvWc9BmDS
B2daKIJ4/8XwcHi6JzVIM7NQOecfmnycWTf+D9M1cbvpF5CZ0U+h5etqxe1dYolJ
QCU7V79FiwIDAQABo1MwUTAdBgNVHQ4EFgQUvOBPAK0mkY82DHBRHIDzhnKJMU4w
HwYDVR0jBBgwFoAUvOBPAK0mkY82DHBRHIDzhnKJMU4wDwYDVR0TAQH/BAUwAwEB
/zANBgkqhkiG9w0BAQsFAAOCAQEApOMTiyqjZPfV+woISPfnEBEHYb0PGJkLiENW
OkI/ygNNQ0p+/1VQHrrKQ9Q/GQBgeKR4CH01Wi9W8FITCzfFd4qe5qpMrbr+XU6k
GDoPhnpdHlhuyjur1PhXJcRaoLy9++7Nho1ZUmbAP2Rp1ux7eWML7LLQPebERZyY
7xUIgyMImWLa9oG7pSKeKqALJQo1dh9cWTwgI8v3ws4hqk9f+Q2I0jaFTQX98/86
Xk5RzfiAwQDNJ6wZ5Bjf21hCJDMHa4xGnMPrIzgKlHRdU5noh2CVYa2c9kEB+lRv
i2hjnENjlQD0+GF4URoFdsIvI3XF9BayGDkdOzHSWcML9IoMuw==
-----END CERTIFICATE-----
