Certificate:
    Data:
        Version: 1 (0x0)
        Serial Number:
            05:e0:ca:3b:54:1b:a6:1e:ab:80:2d:b3:d3:5b:fd:b6:3a:1d:24:0e
        Signature Algorithm: NULL
        Issuer: CN = pg-client
        Validity
            Not Before: Jan  5 22:36:36 2021 GMT
            Not After : Jan  5 22:36:36 2022 GMT
        Subject: CN = pg-client
        Subject Public Key Info:
            Public Key Algorithm: rsaEncryption
                RSA Public-Key: (2048 bit)
                Modulus:
                    00:a3:16:81:06:98:bc:b5:cb:01:bf:41:6c:f2:3b:
                    47:61:f0:54:62:30:4c:46:ce:22:1a:27:2b:64:6a:
                    69:75:47:7e:d1:65:8f:11:82:a7:b4:8a:40:22:5a:
                    06:e8:3b:f0:68:3a:8d:d8:a4:ff:d5:a7:94:0e:26:
                    d8:76:61:ec:f5:a7:fe:57:32:0d:eb:11:7f:28:88:
                    08:e7:f4:b0:d7:db:d2:fc:32:6f:71:99:0e:4f:24:
                    e1:07:32:ea:8a:21:84:08:94:33:ff:f4:a8:64:ef:
                    d6:c4:fb:b6:46:58:8a:69:07:9f:c7:05:6e:84:0b:
                    cd:c7:e2:79:10:4a:2e:bd:b2:0c:70:76:e5:6d:b4:
                    57:cd:10:2b:28:66:ef:1b:46:30:c4:df:c5:11:81:
                    8c:7c:0d:cb:75:7b:56:ab:14:06:94:6a:96:97:67:
                    23:09:24:98:01:84:35:3c:bb:56:71:03:e7:9e:62:
                    a7:e6:ae:90:4c:f8:b3:48:64:62:38:5f:d8:a8:ab:
                    03:76:43:ce:38:d4:25:ee:5a:16:f4:6f:78:0f:da:
                    e9:70:20:47:54:2b:dc:93:58:72:9c:f2:5f:0b:cb:
                    14:7a:5b:28:43:46:f0:5b:30:ba:b2:c3:f6:cf:05:
                    e2:1c:2c:ee:91:e9:64:fd:c6:d7:c0:ab:54:24:20:
                    73:db
                Exponent: 65537 (0x10001)
    Signature Algorithm: NULL
-----BEGIN CERTIFICATE-----
MIICuzCCAaMCFH1b1XdQ6z1UbLmlw/zkBgOPum4SMA0GCSqGSIb3DQEBCwUAMCAx
HjAcBgNVBAMMFWNlcnRpZmljYXRlLWF1dGhvcml0eTAeFw0yMTAxMDUyMjM2MzZa
Fw0yMjAxMDUyMjM2MzZaMBQxEjAQBgNVBAMMCXBnLWNsaWVudDCCASIwDQYJKoZI
hvcNAQEBBQADggEPADCCAQoCggEBAKMWgQaYvLXLAb9BbPI7R2HwVGIwTEbOIhon
K2RqaXVHftFljxGCp7SKQCJaBug78Gg6jdik/9WnlA4m2HZh7PWn/lcyDesRfyiI
COf0sNfb0vwyb3GZDk8k4Qcy6oohhAiUM//0qGTv1sT7tkZYimkHn8cFboQLzcfi
eRBKLr2yDHB25W20V80QKyhm7xtGMMTfxRGBjHwNy3V7VqsUBpRqlpdnIwkkmAGE
NTy7VnED555ip+aukEz4s0hkYjhf2KirA3ZDzjjUJe5aFvRveA/a6XAgR1Qr3JNY
cpzyXwvLFHpbKENG8FswurLD9s8F4hws7pHpZP3G18CrVCQgc9sCAwEAATANBgkq
hkiG9w0BAQsFAAOCAQEAx5rEicW9+IchoPTdD/zi7K42l1IhNEzcDgL3dOuvPxxS
RZbo4KaOU0mUd0ODYdPiHjY7YhzD9ghfipK4OR9CAwOsAAInr3qHis8ovl6xja0X
jXAQiG0Dgb7wxfMT6wZe1uI6wwg3Z56PLf+1opHc4U5gEbDuK2hVj3FE8rfcWzPA
iCmg8pJ51JLEsbjIndH/Ask/FvyZ+NNU3YfPdEpRQ2BSwDNFUMviu8NCSkOXZkSs
AlcNWhBIaSYguiogF3A0eL9BLZ1cbqgRKWrnn/4UraOJ133vAmyjMKUS3SZyG3Le
ojZ2cDo4Qmf0LZ3pZPHMx8Mbm467smw21VM/NlUeMg==
-----END CERTIFICATE-----
